target datalayout = "e-m:e-p270:32:32-p271:32:32-p272:64:64-i64:64-i128:128-f80:128-n8:16:32:64-S128"
target triple = "x86_64-pc-linux-gnu"

%struct.expert_field = type { i32, i32 }

@ei_reload_truncated_field = internal global %struct.expert_field zeroinitializer, align 4
@hf_reload_length_uint32 = internal global i32 0, align 4
@hf_reload_length_uint24 = internal global i32 0, align 4
@hf_reload_length_uint16 = internal global i32 0, align 4
@hf_reload_length_uint8 = internal global i32 0, align 4
@ett_reload_nodeid_list = internal global i32 0, align 4
@reload_nodeid_length = internal global i32 16, align 4
@.str.710 = private unnamed_addr constant [22 x i8] c"Truncated NodeId list\00", align 1
@.str.711 = private unnamed_addr constant [14 x i8] c" (NodeId<%d>)\00", align 1
@.str.712 = private unnamed_addr constant [13 x i8] c":%d elements\00", align 1

; Function Attrs: null_pointer_is_valid sspstrong uwtable
define internal i32 @dissect_length(ptr noundef %0, ptr noundef %1, i16 noundef zeroext %2, i16 noundef zeroext %3) #0 {
  %5 = alloca i32, align 4
  %6 = alloca ptr, align 8
  %7 = alloca ptr, align 8
  %8 = alloca i16, align 2
  %9 = alloca i16, align 2
  store ptr %0, ptr %6, align 8
  store ptr %1, ptr %7, align 8
  store i16 %2, ptr %8, align 2
  store i16 %3, ptr %9, align 2
  %10 = load i16, ptr %9, align 2
  %11 = zext i16 %10 to i32
  switch i32 %11, label %40 [
    i32 1, label %12
    i32 2, label %19
    i32 3, label %26
    i32 4, label %33
  ]

12:                                               ; preds = %4
  %13 = load ptr, ptr %7, align 8
  %14 = load i32, ptr @hf_reload_length_uint8, align 4
  %15 = load ptr, ptr %6, align 8
  %16 = load i16, ptr %8, align 2
  %17 = zext i16 %16 to i32
  %18 = call ptr @proto_tree_add_item(ptr noundef %13, i32 noundef %14, ptr noundef %15, i32 noundef %17, i32 noundef 1, i32 noundef 0)
  store i32 1, ptr %5, align 4
  br label %42

19:                                               ; preds = %4
  %20 = load ptr, ptr %7, align 8
  %21 = load i32, ptr @hf_reload_length_uint16, align 4
  %22 = load ptr, ptr %6, align 8
  %23 = load i16, ptr %8, align 2
  %24 = zext i16 %23 to i32
  %25 = call ptr @proto_tree_add_item(ptr noundef %20, i32 noundef %21, ptr noundef %22, i32 noundef %24, i32 noundef 2, i32 noundef 0)
  store i32 2, ptr %5, align 4
  br label %42

26:                                               ; preds = %4
  %27 = load ptr, ptr %7, align 8
  %28 = load i32, ptr @hf_reload_length_uint24, align 4
  %29 = load ptr, ptr %6, align 8
  %30 = load i16, ptr %8, align 2
  %31 = zext i16 %30 to i32
  %32 = call ptr @proto_tree_add_item(ptr noundef %27, i32 noundef %28, ptr noundef %29, i32 noundef %31, i32 noundef 3, i32 noundef 0)
  store i32 3, ptr %5, align 4
  br label %42

33:                                               ; preds = %4
  %34 = load ptr, ptr %7, align 8
  %35 = load i32, ptr @hf_reload_length_uint32, align 4
  %36 = load ptr, ptr %6, align 8
  %37 = load i16, ptr %8, align 2
  %38 = zext i16 %37 to i32
  %39 = call ptr @proto_tree_add_item(ptr noundef %34, i32 noundef %35, ptr noundef %36, i32 noundef %38, i32 noundef 4, i32 noundef 0)
  store i32 4, ptr %5, align 4
  br label %42

40:                                               ; preds = %4
  br label %41

41:                                               ; preds = %40
  store i32 0, ptr %5, align 4
  br label %42

42:                                               ; preds = %41, %33, %26, %19, %12
  %43 = load i32, ptr %5, align 4
  ret i32 %43
}

; Function Attrs: null_pointer_is_valid sspstrong uwtable
define internal i32 @dissect_nodeid_list(ptr noundef %0, ptr noundef %1, ptr noundef %2, i16 noundef zeroext %3, i16 noundef zeroext %4, i32 noundef %5) #0 {
  %7 = alloca ptr, align 8
  %8 = alloca ptr, align 8
  %9 = alloca ptr, align 8
  %10 = alloca i16, align 2
  %11 = alloca i16, align 2
  %12 = alloca i32, align 4
  %13 = alloca i16, align 2
  %14 = alloca i16, align 2
  %15 = alloca i32, align 4
  %16 = alloca i16, align 2
  %17 = alloca i32, align 4
  %18 = alloca ptr, align 8
  %19 = alloca ptr, align 8
  store ptr %0, ptr %7, align 8
  store ptr %1, ptr %8, align 8
  store ptr %2, ptr %9, align 8
  store i16 %3, ptr %10, align 2
  store i16 %4, ptr %11, align 2
  store i32 %5, ptr %12, align 4
  call void @llvm.lifetime.start.p0(i64 2, ptr %13) #8
  call void @llvm.lifetime.start.p0(i64 2, ptr %14) #8
  store i16 0, ptr %14, align 2
  call void @llvm.lifetime.start.p0(i64 4, ptr %15) #8
  store i32 0, ptr %15, align 4
  call void @llvm.lifetime.start.p0(i64 2, ptr %16) #8
  store i16 0, ptr %16, align 2
  call void @llvm.lifetime.start.p0(i64 4, ptr %17) #8
  store i32 0, ptr %17, align 4
  call void @llvm.lifetime.start.p0(i64 8, ptr %18) #8
  call void @llvm.lifetime.start.p0(i64 8, ptr %19) #8
  %20 = load ptr, ptr %7, align 8
  %21 = load i16, ptr %10, align 2
  %22 = zext i16 %21 to i32
  %23 = call zeroext i16 @tvb_get_ntohs(ptr noundef %20, i32 noundef %22)
  store i16 %23, ptr %13, align 2
  %24 = load i16, ptr %13, align 2
  %25 = zext i16 %24 to i32
  %26 = add i32 %25, 2
  %27 = load i16, ptr %11, align 2
  %28 = zext i16 %27 to i32
  %29 = icmp sgt i32 %26, %28
  br i1 %29, label %30, label %42

30:                                               ; preds = %6
  %31 = load ptr, ptr %9, align 8
  %32 = load i32, ptr %12, align 4
  %33 = load ptr, ptr %7, align 8
  %34 = load i16, ptr %10, align 2
  %35 = zext i16 %34 to i32
  %36 = load i16, ptr %11, align 2
  %37 = zext i16 %36 to i32
  %38 = call ptr @proto_tree_add_item(ptr noundef %31, i32 noundef %32, ptr noundef %33, i32 noundef %35, i32 noundef %37, i32 noundef 0)
  store ptr %38, ptr %18, align 8
  %39 = load ptr, ptr %8, align 8
  %40 = load ptr, ptr %18, align 8
  %41 = call ptr (ptr, ptr, ptr, ptr, ...) @expert_add_info_format(ptr noundef %39, ptr noundef %40, ptr noundef @ei_reload_truncated_field, ptr noundef @.str.710)
  br label %42

42:                                               ; preds = %30, %6
  %43 = load ptr, ptr %9, align 8
  %44 = load i32, ptr %12, align 4
  %45 = load ptr, ptr %7, align 8
  %46 = load i16, ptr %10, align 2
  %47 = zext i16 %46 to i32
  %48 = load i16, ptr %13, align 2
  %49 = zext i16 %48 to i32
  %50 = add i32 %49, 2
  %51 = call ptr @proto_tree_add_item(ptr noundef %43, i32 noundef %44, ptr noundef %45, i32 noundef %47, i32 noundef %50, i32 noundef 0)
  store ptr %51, ptr %18, align 8
  %52 = load ptr, ptr %18, align 8
  %53 = load i16, ptr %13, align 2
  %54 = zext i16 %53 to i32
  call void (ptr, ptr, ...) @proto_item_append_text(ptr noundef %52, ptr noundef @.str.711, i32 noundef %54)
  %55 = load ptr, ptr %18, align 8
  %56 = load i32, ptr @ett_reload_nodeid_list, align 4
  %57 = call ptr @proto_item_add_subtree(ptr noundef %55, i32 noundef %56)
  store ptr %57, ptr %19, align 8
  %58 = load ptr, ptr %7, align 8
  %59 = load ptr, ptr %19, align 8
  %60 = load i16, ptr %10, align 2
  %61 = call i32 @dissect_length(ptr noundef %58, ptr noundef %59, i16 noundef zeroext %60, i16 noundef zeroext 2)
  %62 = load i16, ptr %14, align 2
  %63 = zext i16 %62 to i32
  %64 = add i32 %63, %61
  %65 = trunc i32 %64 to i16
  store i16 %65, ptr %14, align 2
  br label %66

66:                                               ; preds = %100, %42
  %67 = load i32, ptr %15, align 4
  %68 = icmp sge i32 %67, 0
  br i1 %68, label %69, label %74

69:                                               ; preds = %66
  %70 = load i32, ptr %15, align 4
  %71 = load i16, ptr %13, align 2
  %72 = zext i16 %71 to i32
  %73 = icmp slt i32 %70, %72
  br label %74

74:                                               ; preds = %69, %66
  %75 = phi i1 [ false, %66 ], [ %73, %69 ]
  br i1 %75, label %76, label %107

76:                                               ; preds = %74
  %77 = load ptr, ptr %7, align 8
  %78 = load ptr, ptr %8, align 8
  %79 = load ptr, ptr %19, align 8
  %80 = load i16, ptr %10, align 2
  %81 = zext i16 %80 to i32
  %82 = load i16, ptr %14, align 2
  %83 = zext i16 %82 to i32
  %84 = add i32 %81, %83
  %85 = load i32, ptr %15, align 4
  %86 = add i32 %84, %85
  %87 = trunc i32 %86 to i16
  %88 = load i16, ptr %13, align 2
  %89 = zext i16 %88 to i32
  %90 = load i32, ptr %15, align 4
  %91 = sub i32 %89, %90
  %92 = trunc i32 %91 to i16
  %93 = call i32 @dissect_nodeid(i32 noundef -1, ptr noundef %77, ptr noundef %78, ptr noundef %79, i16 noundef zeroext %87, i16 noundef zeroext %92)
  %94 = load i32, ptr @reload_nodeid_length, align 4
  %95 = trunc i32 %94 to i16
  store i16 %95, ptr %16, align 2
  %96 = load i16, ptr %16, align 2
  %97 = zext i16 %96 to i32
  %98 = icmp sle i32 %97, 0
  br i1 %98, label %99, label %100

99:                                               ; preds = %76
  br label %107

100:                                              ; preds = %76
  %101 = load i16, ptr %16, align 2
  %102 = zext i16 %101 to i32
  %103 = load i32, ptr %15, align 4
  %104 = add i32 %103, %102
  store i32 %104, ptr %15, align 4
  %105 = load i32, ptr %17, align 4
  %106 = add i32 %105, 1
  store i32 %106, ptr %17, align 4
  br label %66, !llvm.loop !33

107:                                              ; preds = %99, %74
  %108 = load ptr, ptr %18, align 8
  %109 = load i32, ptr %17, align 4
  call void (ptr, ptr, ...) @proto_item_append_text(ptr noundef %108, ptr noundef @.str.712, i32 noundef %109)
  %110 = load i16, ptr %13, align 2
  %111 = zext i16 %110 to i32
  %112 = add i32 %111, 2
  call void @llvm.lifetime.end.p0(i64 8, ptr %19) #8
  call void @llvm.lifetime.end.p0(i64 8, ptr %18) #8
  call void @llvm.lifetime.end.p0(i64 4, ptr %17) #8
  call void @llvm.lifetime.end.p0(i64 2, ptr %16) #8
  call void @llvm.lifetime.end.p0(i64 4, ptr %15) #8
  call void @llvm.lifetime.end.p0(i64 2, ptr %14) #8
  call void @llvm.lifetime.end.p0(i64 2, ptr %13) #8
  ret i32 %112
}