; Function Attrs: null_pointer_is_valid sspstrong uwtable
define internal fastcc range(i32 2, 65538) i32 @dissect_nodeid_list(ptr noundef %0, ptr noundef %1, ptr noundef %2, i16 noundef zeroext %3, i16 noundef zeroext %4, i32 noundef %5) unnamed_addr #0 {
  %7 = zext i16 %3 to i32
  %8 = tail call zeroext i16 @tvb_get_ntohs(ptr noundef %0, i32 noundef %7)
  %9 = zext i16 %8 to i32
  %10 = add nuw nsw i32 %9, 2
  %11 = zext i16 %4 to i32
  %12 = icmp samesign ugt i32 %10, %11
  br i1 %12, label %13, label %16

13:                                               ; preds = %6
  %14 = tail call ptr @proto_tree_add_item(ptr noundef %2, i32 noundef %5, ptr noundef %0, i32 noundef %7, i32 noundef %11, i32 noundef 0)
  %15 = tail call ptr (ptr, ptr, ptr, ptr, ...) @expert_add_info_format(ptr noundef %1, ptr noundef %14, ptr noundef nonnull @ei_reload_truncated_field, ptr noundef nonnull @.str.710)
  br label %16

16:                                               ; preds = %13, %6
  %17 = tail call ptr @proto_tree_add_item(ptr noundef %2, i32 noundef %5, ptr noundef %0, i32 noundef %7, i32 noundef %10, i32 noundef 0)
  tail call void (ptr, ptr, ...) @proto_item_append_text(ptr noundef %17, ptr noundef nonnull @.str.711, i32 noundef %9)
  %18 = load i32, ptr @ett_reload_nodeid_list, align 4
  %19 = tail call ptr @proto_item_add_subtree(ptr noundef %17, i32 noundef %18)
  %20 = load i32, ptr @hf_reload_length_uint16, align 4
  %21 = tail call ptr @proto_tree_add_item(ptr noundef %19, i32 noundef %20, ptr noundef %0, i32 noundef %7, i32 noundef 2, i32 noundef 0)
  %22 = add nuw nsw i32 %7, 2
  %.not = icmp eq i16 %8, 0
  br i1 %.not, label %._crit_edge, label %.lr.ph

.lr.ph:                                           ; preds = %16, %31
  %.045 = phi i32 [ %33, %31 ], [ 0, %16 ]
  %.04044 = phi i32 [ %32, %31 ], [ 0, %16 ]
  %23 = add nuw nsw i32 %22, %.04044
  %24 = trunc i32 %23 to i16
  %25 = trunc i32 %.04044 to i16
  %26 = sub i16 %8, %25
  %27 = tail call fastcc i32 @dissect_nodeid(i32 noundef -1, ptr noundef %0, ptr noundef %1, ptr noundef %19, i16 noundef zeroext %24, i16 noundef zeroext %26)
  %28 = load i32, ptr @reload_nodeid_length, align 4
  %29 = and i32 %28, 65535
  %30 = icmp eq i32 %29, 0
  br i1 %30, label %._crit_edge, label %31

31:                                               ; preds = %.lr.ph
  %32 = add nuw nsw i32 %29, %.04044
  %33 = add i32 %.045, 1
  %34 = icmp samesign ult i32 %32, %9
  br i1 %34, label %.lr.ph, label %._crit_edge, !llvm.loop !23

._crit_edge:                                      ; preds = %31, %.lr.ph, %16
  %.0.lcssa = phi i32 [ 0, %16 ], [ %.045, %.lr.ph ], [ %33, %31 ]
  tail call void (ptr, ptr, ...) @proto_item_append_text(ptr noundef %17, ptr noundef nonnull @.str.712, i32 noundef %.0.lcssa)
  ret i32 %10
}